target datalayout = "e-m:e-p270:32:32-p271:32:32-p272:64:64-i64:64-i128:128-f80:128-n8:16:32:64-S128"
target triple = "x86_64-pc-linux-gnu"

%struct.pmix_pointer_array_t = type { %struct.pmix_object_t, i32, i32, i32, i32, i32, ptr, ptr }
%struct.pmix_object_t = type { %union.pthread_mutex_t, ptr, i32, %struct.pmix_tma }
%union.pthread_mutex_t = type { %struct.__pthread_mutex_s }
%struct.__pthread_mutex_s = type { i32, i32, i32, i32, i32, i16, i16, %struct.__pthread_internal_list }
%struct.__pthread_internal_list = type { ptr, ptr }
%struct.pmix_tma = type { ptr, ptr, ptr, ptr, ptr, ptr, ptr, ptr }
%struct.pmix_proc = type { [256 x i8], i32 }
%struct.pmix_list_t = type { %struct.pmix_object_t, %struct.pmix_list_item_t, i64 }
%struct.pmix_list_item_t = type { %struct.pmix_object_t, ptr, ptr, i32 }
%struct.pmix_class_t = type { ptr, ptr, ptr, ptr, i32, i32, ptr, ptr, i64 }
%struct.timeval = type { i64, i64 }
%struct.pmix_server_globals_t = type { i8, i32, i32, %struct.pmix_pointer_array_t, %struct.pmix_pointer_array_t, i32, i8, %struct.pmix_proc, %struct.pmix_list_t, i8, i8, i8, i8, i8, %struct.pmix_proc, i8, ptr, ptr, i64, %struct.pmix_list_t, %struct.pmix_list_t, %struct.pmix_list_t }
%struct.pmix_server_req_t = type { %struct.pmix_object_t, %struct.event, i8, %struct.event, i8, i8, i8, ptr, ptr, ptr, i32, i32, i32, i32, i32, i8, i8, i8, i8, i32, i32, i32, i8, i32, ptr, i64, ptr, i64, i8, %struct.pmix_proc, %struct.pmix_proc, %struct.pmix_proc, ptr, %struct.pmix_data_buffer, ptr, ptr, ptr, ptr, ptr, ptr, ptr, ptr, ptr }
%struct.event = type { %struct.event_callback, %union.anon.0, i32, ptr, %union.anon.2, i16, i16, %struct.timeval }
%struct.event_callback = type { %struct.anon, i16, i8, i8, %union.anon, ptr }
%struct.anon = type { ptr, ptr }
%union.anon = type { ptr }
%union.anon.0 = type { %struct.anon.1 }
%struct.anon.1 = type { ptr, ptr }
%union.anon.2 = type { %struct.anon.3 }
%struct.anon.3 = type { %struct.anon.4, %struct.timeval }
%struct.anon.4 = type { ptr, ptr }
%struct.pmix_data_buffer = type { ptr, ptr, ptr, i64, i64 }

@.str.56 = private unnamed_addr constant [21 x i8] c"pthread_mutex_lock()\00", align 1

; Function Attrs: inlinehint nounwind uwtable
define internal void @pmix_tma_free(ptr noundef %0, ptr noundef %1) #4 {
  %3 = alloca ptr, align 8
  %4 = alloca ptr, align 8
  store ptr %0, ptr %3, align 8, !tbaa !68
  store ptr %1, ptr %4, align 8, !tbaa !36
  %5 = load ptr, ptr %3, align 8, !tbaa !68
  %6 = icmp ne ptr null, %5
  br i1 %6, label %7, label %13

7:                                                ; preds = %2
  %8 = load ptr, ptr %3, align 8, !tbaa !68
  %9 = getelementptr inbounds nuw %struct.pmix_tma, ptr %8, i32 0, i32 5
  %10 = load ptr, ptr %9, align 8, !tbaa !70
  %11 = load ptr, ptr %3, align 8, !tbaa !68
  %12 = load ptr, ptr %4, align 8, !tbaa !36
  call void %10(ptr noundef %11, ptr noundef %12)
  br label %15

13:                                               ; preds = %2
  %14 = load ptr, ptr %4, align 8, !tbaa !36
  call void @free(ptr noundef %14) #13
  br label %15

15:                                               ; preds = %13, %7
  ret void
}

; Function Attrs: inlinehint nounwind uwtable
define internal void @pmix_obj_run_destructors(ptr noundef %0) #4 {
  %2 = alloca ptr, align 8
  %3 = alloca ptr, align 8
  store ptr %0, ptr %2, align 8, !tbaa !55
  call void @llvm.lifetime.start.p0(i64 8, ptr %3) #13
  %4 = load ptr, ptr %2, align 8, !tbaa !55
  %5 = getelementptr inbounds nuw %struct.pmix_object_t, ptr %4, i32 0, i32 1
  %6 = load ptr, ptr %5, align 8, !tbaa !64
  %7 = getelementptr inbounds nuw %struct.pmix_class_t, ptr %6, i32 0, i32 7
  %8 = load ptr, ptr %7, align 8, !tbaa !65
  store ptr %8, ptr %3, align 8, !tbaa !36
  br label %9

9:                                                ; preds = %13, %1
  %10 = load ptr, ptr %3, align 8, !tbaa !36
  %11 = load ptr, ptr %10, align 8, !tbaa !36
  %12 = icmp ne ptr null, %11
  br i1 %12, label %13, label %19

13:                                               ; preds = %9
  %14 = load ptr, ptr %3, align 8, !tbaa !36
  %15 = load ptr, ptr %14, align 8, !tbaa !36
  %16 = load ptr, ptr %2, align 8, !tbaa !55
  call void %15(ptr noundef %16)
  %17 = load ptr, ptr %3, align 8, !tbaa !36
  %18 = getelementptr inbounds nuw ptr, ptr %17, i32 1
  store ptr %18, ptr %3, align 8, !tbaa !36
  br label %9, !llvm.loop !67

19:                                               ; preds = %9
  call void @llvm.lifetime.end.p0(i64 8, ptr %3) #13
  ret void
}

; Function Attrs: alwaysinline nounwind uwtable
define internal i32 @pmix_obj_update(ptr noundef %0, i32 noundef %1) #5 {
  %3 = alloca ptr, align 8
  %4 = alloca i32, align 4
  %5 = alloca i32, align 4
  store ptr %0, ptr %3, align 8, !tbaa !55
  store i32 %1, ptr %4, align 4, !tbaa !29
  call void @llvm.lifetime.start.p0(i64 4, ptr %5) #13
  %6 = load ptr, ptr %3, align 8, !tbaa !55
  %7 = getelementptr inbounds nuw %struct.pmix_object_t, ptr %6, i32 0, i32 0
  %8 = call i32 @pthread_mutex_lock(ptr noundef %7) #13
  store i32 %8, ptr %5, align 4, !tbaa !29
  %9 = load i32, ptr %5, align 4, !tbaa !29
  %10 = icmp eq i32 %9, 35
  br i1 %10, label %11, label %14

11:                                               ; preds = %2
  %12 = load i32, ptr %5, align 4, !tbaa !29
  %13 = call ptr @__errno_location() #15
  store i32 %12, ptr %13, align 4, !tbaa !29
  call void @perror(ptr noundef @.str.56)
  call void @abort() #16
  unreachable

14:                                               ; preds = %2
  %15 = load i32, ptr %4, align 4, !tbaa !29
  %16 = load ptr, ptr %3, align 8, !tbaa !55
  %17 = getelementptr inbounds nuw %struct.pmix_object_t, ptr %16, i32 0, i32 2
  %18 = load i32, ptr %17, align 8, !tbaa !63
  %19 = add nsw i32 %18, %15
  store i32 %19, ptr %17, align 8, !tbaa !63
  store i32 %19, ptr %5, align 4, !tbaa !29
  %20 = load ptr, ptr %3, align 8, !tbaa !55
  %21 = getelementptr inbounds nuw %struct.pmix_object_t, ptr %20, i32 0, i32 0
  %22 = call i32 @pthread_mutex_unlock(ptr noundef %21) #13
  %23 = load i32, ptr %5, align 4, !tbaa !29
  call void @llvm.lifetime.end.p0(i64 4, ptr %5) #13
  ret i32 %23
}

; Function Attrs: inlinehint nounwind uwtable
define internal ptr @pmix_pointer_array_get_item(ptr noundef %0, i32 noundef %1) #4 {
  %3 = alloca ptr, align 8
  %4 = alloca ptr, align 8
  %5 = alloca i32, align 4
  %6 = alloca ptr, align 8
  %7 = alloca i32, align 4
  store ptr %0, ptr %4, align 8, !tbaa !59
  store i32 %1, ptr %5, align 4, !tbaa !29
  call void @llvm.lifetime.start.p0(i64 8, ptr %6) #13
  %8 = load i32, ptr %5, align 4, !tbaa !29
  %9 = icmp sgt i32 0, %8
  br i1 %9, label %16, label %10

10:                                               ; preds = %2
  %11 = load ptr, ptr %4, align 8, !tbaa !59
  %12 = getelementptr inbounds nuw %struct.pmix_pointer_array_t, ptr %11, i32 0, i32 3
  %13 = load i32, ptr %12, align 8, !tbaa !61
  %14 = load i32, ptr %5, align 4, !tbaa !29
  %15 = icmp sle i32 %13, %14
  br label %16

16:                                               ; preds = %10, %2
  %17 = phi i1 [ true, %2 ], [ %15, %10 ]
  %18 = xor i1 %17, true
  %19 = xor i1 %18, true
  %20 = zext i1 %19 to i32
  %21 = sext i32 %20 to i64
  %22 = call i64 @llvm.expect.i64(i64 %21, i64 0)
  %23 = icmp ne i64 %22, 0
  br i1 %23, label %24, label %25

24:                                               ; preds = %16
  store ptr null, ptr %3, align 8
  store i32 1, ptr %7, align 4
  br label %34

25:                                               ; preds = %16
  %26 = load ptr, ptr %4, align 8, !tbaa !59
  %27 = getelementptr inbounds nuw %struct.pmix_pointer_array_t, ptr %26, i32 0, i32 7
  %28 = load ptr, ptr %27, align 8, !tbaa !62
  %29 = load i32, ptr %5, align 4, !tbaa !29
  %30 = sext i32 %29 to i64
  %31 = getelementptr inbounds ptr, ptr %28, i64 %30
  %32 = load ptr, ptr %31, align 8, !tbaa !36
  store ptr %32, ptr %6, align 8, !tbaa !36
  %33 = load ptr, ptr %6, align 8, !tbaa !36
  store ptr %33, ptr %3, align 8
  store i32 1, ptr %7, align 4
  br label %34

34:                                               ; preds = %25, %24
  call void @llvm.lifetime.end.p0(i64 8, ptr %6) #13
  %35 = load ptr, ptr %3, align 8
  ret ptr %35
}

; Function Attrs: nounwind uwtable
define void @prte_pmix_server_clear(ptr noundef %0) #0 {
  %2 = alloca ptr, align 8
  %3 = alloca i32, align 4
  %4 = alloca ptr, align 8
  %5 = alloca ptr, align 8
  store ptr %0, ptr %2, align 8, !tbaa !33
  call void @llvm.lifetime.start.p0(i64 4, ptr %3) #13
  call void @llvm.lifetime.start.p0(i64 8, ptr %4) #13
  store i32 0, ptr %3, align 4, !tbaa !29
  br label %6

6:                                                ; preds = %84, %1
  %7 = load i32, ptr %3, align 4, !tbaa !29
  %8 = load i32, ptr getelementptr inbounds nuw (%struct.pmix_pointer_array_t, ptr getelementptr inbounds nuw (%struct.pmix_server_globals_t, ptr @prte_pmix_server_globals, i32 0, i32 3), i32 0, i32 3), align 8, !tbaa !35
  %9 = icmp slt i32 %7, %8
  br i1 %9, label %10, label %87

10:                                               ; preds = %6
  %11 = load i32, ptr %3, align 4, !tbaa !29
  %12 = call ptr @pmix_pointer_array_get_item(ptr noundef getelementptr inbounds nuw (%struct.pmix_server_globals_t, ptr @prte_pmix_server_globals, i32 0, i32 3), i32 noundef %11)
  store ptr %12, ptr %4, align 8, !tbaa !36
  %13 = load ptr, ptr %4, align 8, !tbaa !36
  %14 = icmp ne ptr null, %13
  br i1 %14, label %15, label %83

15:                                               ; preds = %10
  %16 = load ptr, ptr %4, align 8, !tbaa !36
  %17 = getelementptr inbounds nuw %struct.pmix_server_req_t, ptr %16, i32 0, i32 31
  %18 = getelementptr inbounds nuw %struct.pmix_proc, ptr %17, i32 0, i32 0
  %19 = getelementptr inbounds [256 x i8], ptr %18, i64 0, i64 0
  %20 = load ptr, ptr %2, align 8, !tbaa !33
  %21 = getelementptr inbounds nuw %struct.pmix_proc, ptr %20, i32 0, i32 0
  %22 = getelementptr inbounds [256 x i8], ptr %21, i64 0, i64 0
  %23 = call zeroext i1 @PMIx_Check_nspace(ptr noundef %19, ptr noundef %22)
  br i1 %23, label %24, label %33

24:                                               ; preds = %15
  %25 = load ptr, ptr %4, align 8, !tbaa !36
  %26 = getelementptr inbounds nuw %struct.pmix_server_req_t, ptr %25, i32 0, i32 31
  %27 = getelementptr inbounds nuw %struct.pmix_proc, ptr %26, i32 0, i32 1
  %28 = load i32, ptr %27, align 4, !tbaa !37
  %29 = load ptr, ptr %2, align 8, !tbaa !33
  %30 = getelementptr inbounds nuw %struct.pmix_proc, ptr %29, i32 0, i32 1
  %31 = load i32, ptr %30, align 4, !tbaa !49
  %32 = call zeroext i1 @PMIx_Check_rank(i32 noundef %28, i32 noundef %31)
  br i1 %32, label %34, label %33

33:                                               ; preds = %24, %15
  br label %84

34:                                               ; preds = %24
  %35 = load ptr, ptr %4, align 8, !tbaa !36
  %36 = getelementptr inbounds nuw %struct.pmix_server_req_t, ptr %35, i32 0, i32 2
  %37 = load i8, ptr %36, align 8, !tbaa !50, !range !51, !noundef !52
  %38 = trunc i8 %37 to i1
  br i1 %38, label %39, label %43

39:                                               ; preds = %34
  %40 = load ptr, ptr %4, align 8, !tbaa !36
  %41 = getelementptr inbounds nuw %struct.pmix_server_req_t, ptr %40, i32 0, i32 1
  %42 = call i32 @event_del(ptr noundef %41)
  br label %43

43:                                               ; preds = %39, %34
  %44 = load ptr, ptr %4, align 8, !tbaa !36
  %45 = getelementptr inbounds nuw %struct.pmix_server_req_t, ptr %44, i32 0, i32 4
  %46 = load i8, ptr %45, align 8, !tbaa !53, !range !51, !noundef !52
  %47 = trunc i8 %46 to i1
  br i1 %47, label %48, label %52

48:                                               ; preds = %43
  %49 = load ptr, ptr %4, align 8, !tbaa !36
  %50 = getelementptr inbounds nuw %struct.pmix_server_req_t, ptr %49, i32 0, i32 3
  %51 = call i32 @event_del(ptr noundef %50)
  br label %52

52:                                               ; preds = %48, %43
  %53 = load i32, ptr %3, align 4, !tbaa !29
  %54 = call i32 @pmix_pointer_array_set_item(ptr noundef getelementptr inbounds nuw (%struct.pmix_server_globals_t, ptr @prte_pmix_server_globals, i32 0, i32 3), i32 noundef %53, ptr noundef null)
  %55 = load ptr, ptr %4, align 8, !tbaa !36
  %56 = getelementptr inbounds nuw %struct.pmix_server_req_t, ptr %55, i32 0, i32 5
  %57 = load i8, ptr %56, align 1, !tbaa !54, !range !51, !noundef !52
  %58 = trunc i8 %57 to i1
  br i1 %58, label %82, label %59

59:                                               ; preds = %52
  br label %60

60:                                               ; preds = %59
  call void @llvm.lifetime.start.p0(i64 8, ptr %5) #13
  %61 = load ptr, ptr %4, align 8, !tbaa !36
  store ptr %61, ptr %5, align 8, !tbaa !55
  %62 = load ptr, ptr %5, align 8, !tbaa !55
  %63 = call i32 @pmix_obj_update(ptr noundef %62, i32 noundef -1)
  %64 = icmp eq i32 0, %63
  br i1 %64, label %65, label %79

65:                                               ; preds = %60
  %66 = load ptr, ptr %5, align 8, !tbaa !55
  call void @pmix_obj_run_destructors(ptr noundef %66)
  %67 = load ptr, ptr %5, align 8, !tbaa !55
  %68 = getelementptr inbounds nuw %struct.pmix_object_t, ptr %67, i32 0, i32 3
  %69 = getelementptr inbounds nuw %struct.pmix_tma, ptr %68, i32 0, i32 5
  %70 = load ptr, ptr %69, align 8, !tbaa !57
  %71 = icmp ne ptr null, %70
  br i1 %71, label %72, label %76

72:                                               ; preds = %65
  %73 = load ptr, ptr %5, align 8, !tbaa !55
  %74 = getelementptr inbounds nuw %struct.pmix_object_t, ptr %73, i32 0, i32 3
  %75 = load ptr, ptr %4, align 8, !tbaa !36
  call void @pmix_tma_free(ptr noundef %74, ptr noundef %75)
  br label %78

76:                                               ; preds = %65
  %77 = load ptr, ptr %4, align 8, !tbaa !36
  call void @free(ptr noundef %77) #13
  br label %78

78:                                               ; preds = %76, %72
  store ptr null, ptr %4, align 8, !tbaa !36
  br label %79

79:                                               ; preds = %78, %60
  call void @llvm.lifetime.end.p0(i64 8, ptr %5) #13
  br label %80

80:                                               ; preds = %79
  br label %81

81:                                               ; preds = %80
  br label %82

82:                                               ; preds = %81, %52
  br label %83

83:                                               ; preds = %82, %10
  br label %84

84:                                               ; preds = %83, %33
  %85 = load i32, ptr %3, align 4, !tbaa !29
  %86 = add nsw i32 %85, 1
  store i32 %86, ptr %3, align 4, !tbaa !29
  br label %6, !llvm.loop !58

87:                                               ; preds = %6
  call void @llvm.lifetime.end.p0(i64 8, ptr %4) #13
  call void @llvm.lifetime.end.p0(i64 4, ptr %3) #13
  ret void
}