; Function Attrs: nounwind uwtable
define void @prte_pmix_server_clear(ptr noundef %0) local_unnamed_addr #0 {
  %2 = load i32, ptr getelementptr inbounds nuw (i8, ptr @prte_pmix_server_globals, i64 144), align 8, !tbaa !30
  %3 = icmp sgt i32 %2, 0
  br i1 %3, label %pmix_pointer_array_get_item.exit.lr.ph, label %._crit_edge

pmix_pointer_array_get_item.exit.lr.ph:           ; preds = %1
  %4 = getelementptr inbounds nuw i8, ptr %0, i64 256
  br label %pmix_pointer_array_get_item.exit

pmix_pointer_array_get_item.exit:                 ; preds = %pmix_pointer_array_get_item.exit.lr.ph, %60
  %indvars.iv = phi i64 [ 0, %pmix_pointer_array_get_item.exit.lr.ph ], [ %indvars.iv.next, %60 ]
  %5 = load ptr, ptr getelementptr inbounds nuw (i8, ptr @prte_pmix_server_globals, i64 168), align 8, !tbaa !31
  %6 = getelementptr inbounds nuw ptr, ptr %5, i64 %indvars.iv
  %7 = load ptr, ptr %6, align 8, !tbaa !32
  %.not = icmp eq ptr %7, null
  br i1 %.not, label %60, label %8

8:                                                ; preds = %pmix_pointer_array_get_item.exit
  %9 = getelementptr inbounds nuw i8, ptr %7, i64 1020
  %10 = tail call zeroext i1 @PMIx_Check_nspace(ptr noundef nonnull %9, ptr noundef %0) #17
  br i1 %10, label %11, label %60

11:                                               ; preds = %8
  %12 = getelementptr inbounds nuw i8, ptr %7, i64 1276
  %13 = load i32, ptr %12, align 4, !tbaa !33
  %14 = load i32, ptr %4, align 4, !tbaa !45
  %15 = tail call zeroext i1 @PMIx_Check_rank(i32 noundef %13, i32 noundef %14) #17
  br i1 %15, label %16, label %60

16:                                               ; preds = %11
  %17 = getelementptr inbounds nuw i8, ptr %7, i64 248
  %18 = load i8, ptr %17, align 8, !tbaa !46, !range !47, !noundef !48
  %19 = trunc nuw i8 %18 to i1
  br i1 %19, label %20, label %23

20:                                               ; preds = %16
  %21 = getelementptr inbounds nuw i8, ptr %7, i64 120
  %22 = tail call i32 @event_del(ptr noundef nonnull %21) #17
  br label %23

23:                                               ; preds = %20, %16
  %24 = getelementptr inbounds nuw i8, ptr %7, i64 384
  %25 = load i8, ptr %24, align 8, !tbaa !49, !range !47, !noundef !48
  %26 = trunc nuw i8 %25 to i1
  br i1 %26, label %27, label %30

27:                                               ; preds = %23
  %28 = getelementptr inbounds nuw i8, ptr %7, i64 256
  %29 = tail call i32 @event_del(ptr noundef nonnull %28) #17
  br label %30

30:                                               ; preds = %27, %23
  %31 = trunc nuw nsw i64 %indvars.iv to i32
  %32 = tail call i32 @pmix_pointer_array_set_item(ptr noundef nonnull getelementptr inbounds nuw (i8, ptr @prte_pmix_server_globals, i64 16), i32 noundef %31, ptr noundef null) #17
  %33 = getelementptr inbounds nuw i8, ptr %7, i64 385
  %34 = load i8, ptr %33, align 1, !tbaa !50, !range !47, !noundef !48
  %35 = trunc nuw i8 %34 to i1
  br i1 %35, label %60, label %36

36:                                               ; preds = %30
  %37 = tail call i32 @pthread_mutex_lock(ptr noundef nonnull %7) #17
  %38 = icmp eq i32 %37, 35
  br i1 %38, label %39, label %pmix_obj_update.exit

39:                                               ; preds = %36
  %40 = tail call ptr @__errno_location() #19
  store i32 35, ptr %40, align 4, !tbaa !51
  tail call void @perror(ptr noundef nonnull @.str.56) #20
  tail call void @abort() #21
  unreachable

pmix_obj_update.exit:                             ; preds = %36
  %41 = getelementptr inbounds nuw i8, ptr %7, i64 48
  %42 = load i32, ptr %41, align 8, !tbaa !52
  %43 = add nsw i32 %42, -1
  store i32 %43, ptr %41, align 8, !tbaa !52
  %44 = tail call i32 @pthread_mutex_unlock(ptr noundef nonnull %7) #17
  %45 = icmp eq i32 %43, 0
  br i1 %45, label %46, label %60

46:                                               ; preds = %pmix_obj_update.exit
  %47 = getelementptr inbounds nuw i8, ptr %7, i64 40
  %48 = load ptr, ptr %47, align 8, !tbaa !53
  %49 = getelementptr inbounds nuw i8, ptr %48, i64 48
  %50 = load ptr, ptr %49, align 8, !tbaa !54
  %51 = load ptr, ptr %50, align 8, !tbaa !32
  %.not6.i = icmp eq ptr %51, null
  br i1 %.not6.i, label %pmix_obj_run_destructors.exit, label %.lr.ph.i

.lr.ph.i:                                         ; preds = %46, %.lr.ph.i
  %52 = phi ptr [ %54, %.lr.ph.i ], [ %51, %46 ]
  %.07.i = phi ptr [ %53, %.lr.ph.i ], [ %50, %46 ]
  tail call void %52(ptr noundef nonnull %7) #17
  %53 = getelementptr inbounds nuw i8, ptr %.07.i, i64 8
  %54 = load ptr, ptr %53, align 8, !tbaa !32
  %.not.i22 = icmp eq ptr %54, null
  br i1 %.not.i22, label %pmix_obj_run_destructors.exit, label %.lr.ph.i, !llvm.loop !56

pmix_obj_run_destructors.exit:                    ; preds = %.lr.ph.i, %46
  %55 = getelementptr inbounds nuw i8, ptr %7, i64 96
  %56 = load ptr, ptr %55, align 8, !tbaa !57
  %.not21 = icmp eq ptr %56, null
  br i1 %.not21, label %59, label %57

57:                                               ; preds = %pmix_obj_run_destructors.exit
  %58 = getelementptr inbounds nuw i8, ptr %7, i64 56
  tail call void %56(ptr noundef nonnull %58, ptr noundef nonnull %7) #17
  br label %60

59:                                               ; preds = %pmix_obj_run_destructors.exit
  tail call void @free(ptr noundef nonnull %7) #17
  br label %60

60:                                               ; preds = %pmix_obj_update.exit, %59, %57, %pmix_pointer_array_get_item.exit, %30, %8, %11
  %indvars.iv.next = add nuw nsw i64 %indvars.iv, 1
  %61 = load i32, ptr getelementptr inbounds nuw (i8, ptr @prte_pmix_server_globals, i64 144), align 8, !tbaa !30
  %62 = sext i32 %61 to i64
  %63 = icmp slt i64 %indvars.iv.next, %62
  br i1 %63, label %pmix_pointer_array_get_item.exit, label %._crit_edge, !llvm.loop !58

._crit_edge:                                      ; preds = %60, %1
  ret void
}